(lp0
(dp1
S'accessible'
p2
I00
sS'address_g'
p3
S''
p4
sS'laundry'
p5
g4
sS'description'
p6
VPrivate 3 bedroom country home 1.3 acres waterfront
p7
sS'furnished'
p8
I00
sS'price'
p9
V$1500
p10
sS'parking'
p11
g4
sS'dog'
p12
I00
sS'longitude'
p13
I0
sS'bath'
p14
V1
p15
sS'cat'
p16
I00
sS'link'
p17
V/apa/5236032157.html
p18
sS'bed'
p19
V3
p20
sS'address'
p21
g4
sS'latitude'
p22
I0
sS'nonsmoking'
p23
I00
sS'type'
p24
g4
sS'availability'
p25
Vavailable aug 01
p26
sS'size'
p27
V1200ft2
p28
sa(dp29
g2
I00
sg8
I00
sg14
V2.5
p30
sS'meters_car'
p31
I44696
sg19
g20
sg11
g4
sg25
Vavailable sep 23
p32
sg27
V1200ft2
p33
sS'meters_transit'
p34
I42907
sg3
V2201-2299 5th Ave, South Milwaukee, WI 53172, USA
p35
sg22
F42.908716
sg24
g4
sS'seconds_car'
p36
I2173
sg5
g4
sg6
VCharming 3 BR/2.5 BA Single Family House
p37
sg9
V$1250
p38
sg17
V/apa/5235994472.html
p39
sg21
VMichigan Ave at 5th Ave South Milwaukee WI US
p40
sS'seconds_transit'
p41
I9341
sg23
I00
sg12
I00
sg13
F-87.85168
sg16
I00
sa(dp42
g2
I00
sg8
I00
sg14
V2.5
p43
sg31
I27457
sg19
V4
p44
sg11
g4
sg25
Vavailable nov 15
p45
sg27
V2000ft2
p46
sg34
I29490
sg3
V4560-4566 S 68th St, Milwaukee, WI 53220, USA
p47
sg22
F42.961486
sg24
g4
sg36
I1318
sg5
g4
sg6
V4BD/2.5 BA Single Family Home Avail 11/15/15
p48
sg9
V$1600
p49
sg17
V/apa/5206376279.html
p50
sg21
V4570 S 68th Street at W Armour Greenfield WI US
p51
sg41
I7022
sg23
I00
sg12
I00
sg13
F-87.998286
sg16
I00
sa(dp52
g2
I00
sg8
I00
sg14
g15
sg31
I32604
sg19
g20
sg11
g4
sg25
Vavailable nov 15
p53
sg27
V900ft2
p54
sg34
I30303
sg3
V2322 W Halsey Ave, Milwaukee, WI 53221, USA
p55
sg22
F42.9549
sg24
g4
sg36
I1519
sg5
g4
sg6
V4011 W Morgan 3BD/1BA Available November
p56
sg9
V$705
p57
sg17
V/apa/5206342401.html
p58
sg21
g4
sg41
I6232
sg23
I00
sg12
I00
sg13
F-87.9447
sg16
I00
sa(dp59
g2
I00
sg8
I00
sg14
g15
sg31
I29115
sg19
g20
sg11
g4
sg25
Vavailable aug 01
p60
sg27
I0
sg34
I27254
sg3
V1929A S 10th St, Milwaukee, WI 53204, USA
p61
sg22
F43.009762
sg24
g4
sg36
I1523
sg5
g4
sg6
V3 Bedroom Apt.
p62
sg9
V$650
p63
sg17
V/apa/5235985893.html
p64
sg21
VS 10th St at W Burnham Ave Milwaukee WI US
p65
sg41
I6232
sg23
I00
sg12
I00
sg13
F-87.924206
sg16
I00
sa(dp66
g2
I00
sg8
I00
sg14
V2
p67
sg31
I17133
sg19
g20
sg11
g4
sg25
Vavailable sep 23
p68
sg27
V1450ft2
p69
sg34
I21198
sg3
V2000 W Kilbourn Ave, Milwaukee, WI 53233, USA
p70
sg22
F43.042087
sg24
g4
sg36
I1431
sg5
g4
sg6
V3BR/2BA Apartment in a Modern Community!
p71
sg9
V$1065
p72
sg17
V/apa/5235955709.html
p73
sg21
g4
sg41
I4604
sg23
I00
sg12
I00
sg13
F-87.939434
sg16
I00
sa(dp74
g2
I00
sg3
V1612 E Providence Ave, Milwaukee, WI 53211, USA
p75
sg5
g4
sg6
VUWM AREA-UPPER FLAT
p76
sg8
I00
sg9
V$1100
p77
sg11
g4
sg12
I00
sg13
F-87.8895
sg14
g15
sg16
I00
sg17
V/apa/5214831693.html
p78
sg19
g20
sg21
VCramer at Greenwich Milwaukee WI US
p79
sg22
F43.082
sg23
I00
sg24
g4
sg25
Vavailable aug 01
p80
sg27
V1100ft2
p81
sa(dp82
g2
I00
sg3
g4
sg5
g4
sg6
V****3 BEDROOM 1 BATH LOWER DUPLEX
p83
sg8
I00
sg9
V$875
p84
sg11
g4
sg12
I00
sg13
I0
sg14
g15
sg16
I00
sg17
V/apa/5195928168.html
p85
sg19
g20
sg21
g4
sg22
I0
sg23
I00
sg24
g4
sg25
Vavailable sep 25
p86
sg27
I0
sa(dp87
g2
I00
sg8
I00
sg14
g67
sg31
I11433
sg19
g20
sg11
g4
sg25
Vavailable sep 21
p88
sg27
V1200ft2
p89
sg34
I28947
sg3
V10 Driftwood Ct, Germantown, WI 53022, USA
p90
sg22
F43.22316
sg24
g4
sg36
I851
sg5
g4
sg6
VSpacious 3 Bedroom Apartment With Private Patio
p91
sg9
V$1445
p92
sg17
V/apa/5232134723.html
p93
sg21
g4
sg41
I7133
sg23
I00
sg12
I00
sg13
F-88.120823
sg16
I00
sa(dp94
g2
I00
sg3
g4
sg5
g4
sg6
VCheck it out! 3bd 2bth, state-of-the-art newer furnace
p95
sg8
I00
sg9
V$1315
p96
sg11
g4
sg12
I00
sg13
I0
sg14
g67
sg16
I00
sg17
V/apa/5194865297.html
p97
sg19
g44
sg21
g4
sg22
I0
sg23
I00
sg24
g4
sg25
Vavailable aug 28
p98
sg27
V1716ft2
p99
sa(dp100
g2
I00
sg3
g4
sg5
g4
sg6
VRenta Duplex
p101
sg8
I00
sg9
V$875
p102
sg11
g4
sg12
I00
sg13
I0
sg14
g15
sg16
I00
sg17
V/apa/5200816592.html
p103
sg19
g20
sg21
g4
sg22
I0
sg23
I00
sg24
g4
sg25
Vavailable sep 21
p104
sg27
I0
sa(dp105
g2
I00
sg8
I00
sg14
g15
sg31
I19885
sg19
g44
sg11
g4
sg25
Vavailable sep 23
p106
sg27
V1500ft2
p107
sg34
I23313
sg3
V2100-2102 N Oakland Ave, Milwaukee, WI 53202, USA
p108
sg22
F43.058133
sg24
g4
sg36
I1686
sg5
g4
sg6
Veast side - MUST SEE- lower flat UWM
p109
sg9
V$1395
p110
sg17
V/apa/5235814888.html
p111
sg21
V2100 N Oakland Ave Milwaukee WI US
p112
sg41
I5341
sg23
I00
sg12
I00
sg13
F-87.888587
sg16
I00
sa(dp113
g2
I00
sg3
g4
sg5
g4
sg6
V3 Bedroom 1.5 Bath Townhouse
p114
sg8
I00
sg9
V$1595
p115
sg11
g4
sg12
I00
sg13
I0
sg14
V1.5
p116
sg16
I00
sg17
V/apa/5217104737.html
p117
sg19
g20
sg21
g4
sg22
I0
sg23
I00
sg24
g4
sg25
Vavailable nov 15
p118
sg27
V1400ft2
p119
sa(dp120
g2
I00
sg8
I00
sg14
g15
sg31
I12687
sg19
g20
sg11
g4
sg25
Vavailable sep 10
p121
sg27
I0
sg34
I14978
sg3
V7735 W Clarke St, Wauwatosa, WI 53213, USA
p122
sg22
F43.066112
sg24
g4
sg36
I977
sg5
g4
sg6
VWauwatosa Home for Rent
p123
sg9
V$1400
p124
sg17
V/apa/5215165633.html
p125
sg21
V78th at Clarke Wauwatosa WI US
p126
sg41
I4322
sg23
I00
sg12
I00
sg13
F-88.009787
sg16
I00
sa(dp127
g2
I00
sg8
I00
sg14
g15
sg31
I19885
sg19
g20
sg11
g4
sg25
Vavailable sep 23
p128
sg27
V1500ft2
p129
sg34
I23313
sg3
V2100 N Oakland Ave, Milwaukee, WI 53202, USA
p130
sg22
F43.058204
sg24
g4
sg36
I1686
sg5
g4
sg6
VSPACIOUS, Safe upper Duplex w/yard, parking & free heat/electricity!
p131
sg9
V$1295
p132
sg17
V/apa/5235781366.html
p133
sg21
V2102 Oakland Ave Milwaukee WI US
p134
sg41
I5341
sg23
I00
sg12
I00
sg13
F-87.888619
sg16
I00
sa(dp135
g2
I00
sg8
I00
sg14
g67
sg31
I50898
sg19
g20
sg11
g4
sg25
Vavailable nov 15
p136
sg27
I0
sg34
I83059
sg3
VN7770 Vicksburg Way, Oconomowoc, WI 53066, USA
p137
sg22
F43.125106
sg24
g4
sg36
I2732
sg5
g4
sg6
V3 BR/2 BA Apts. heat included! 2 car attached GA, & in unit W/D
p138
sg9
V$1145
p139
sg17
V/apa/5226151647.html
p140
sg21
VN7780 Vicksburg Way Oconomowoc WI US
p141
sg41
I8573
sg23
I00
sg12
I00
sg13
F-88.548131
sg16
I00
sa(dp142
g2
I00
sg3
V3006 N 81st St, Milwaukee, WI 53222, USA
p143
sg5
g4
sg6
VRent To Own 4 Bedroom
p144
sg8
I00
sg9
V$1200
p145
sg11
g4
sg12
I00
sg13
F-88.013587
sg14
V1.5
p146
sg16
I00
sg17
V/apa/5212644941.html
p147
sg19
g44
sg21
V3015 N 81st St Milwaukee WI US
p148
sg22
F43.073668
sg23
I00
sg24
g4
sg25
Vavailable sep 08
p149
sg27
I0
sa(dp150
g2
I00
sg3
V1009 S 2nd St, Milwaukee, WI 53204, USA
p151
sg5
g4
sg6
V1002 S 2nd Street - Historic 4 Bedroom Home
p152
sg8
I00
sg9
V$1050
p153
sg11
g4
sg12
I00
sg13
F-87.912786
sg14
V1.5
p154
sg16
I00
sg17
V/apa/5235747829.html
p155
sg19
g44
sg21
V1002 S 2nd Street Milwaukee WI US
p156
sg22
F43.020992
sg23
I00
sg24
g4
sg25
Vavailable sep 23
p157
sg27
I0
sa(dp158
g2
I00
sg3
g4
sg5
g4
sg6
Vowner
p159
sg8
I00
sg9
V$1070
p160
sg11
g4
sg12
I00
sg13
I0
sg14
V1.5
p161
sg16
I00
sg17
V/apa/5235682217.html
p162
sg19
g20
sg21
g4
sg22
I0
sg23
I00
sg24
g4
sg25
Vavailable nov 01
p163
sg27
I0
sa(dp164
g2
I00
sg3
V2201-2211 N 27th St, Milwaukee, WI 53208, USA
p165
sg5
g4
sg6
VLarge 5 bedroom plus Home
p166
sg8
I00
sg9
V$1000
p167
sg11
g4
sg12
I00
sg13
F-87.947586
sg14
g67
sg16
I00
sg17
V/apa/5227193945.html
p168
sg19
V5
p169
sg21
V27th at Garfield Milwaukee WI US
p170
sg22
F43.059212
sg23
I00
sg24
g4
sg25
Vavailable sep 18
p171
sg27
V22000ft2
p172
sa(dp173
g2
I00
sg3
V9805-9899 W Sheridan Ave, Milwaukee, WI 53225, USA
p174
sg5
g4
sg6
V3 bedroom 1.5 bath townhome
p175
sg8
I00
sg9
V$875
p176
sg11
g4
sg12
I00
sg13
F-88.0346
sg14
V1.5
p177
sg16
I00
sg17
V/apa/5235632526.html
p178
sg19
g20
sg21
g4
sg22
F43.1154
sg23
I00
sg24
g4
sg25
Vavailable sep 25
p179
sg27
I0
sa(dp180
g2
I00
sg8
I00
sg14
g67
sg31
I14295
sg19
g20
sg11
g4
sg25
Vavailable nov 01
p181
sg27
V1100ft2
p182
sg34
I28225
sg3
V10563 Hilltop Dr, Germantown, WI 53022, USA
p183
sg22
F43.221254
sg24
g4
sg36
I781
sg5
g4
sg6
VNew 3-Bedroom Manufactured Home for Rent
p184
sg9
V$995
p185
sg17
V/apa/5235648161.html
p186
sg21
VHilltop Drive at Mequon Rd Germantown WI US
p187
sg41
I6586
sg23
I00
sg12
I00
sg13
F-88.162188
sg16
I00
sa(dp188
g2
I00
sg3
g4
sg5
g4
sg6
VRent to Own - Act fast - four BR
p189
sg8
I00
sg9
V$875
p190
sg11
g4
sg12
I00
sg13
I0
sg14
g67
sg16
I00
sg17
V/apa/5235496821.html
p191
sg19
g44
sg21
g4
sg22
I0
sg23
I00
sg24
g4
sg25
Vavailable sep 23
p192
sg27
V1975ft2
p193
sa(dp194
g2
I00
sg8
I00
sg14
g15
sg31
I13294
sg19
g20
sg11
g4
sg25
Vavailable oct 30
p195
sg27
V1400ft2
p196
sg34
I17296
sg3
V5300-5398 W Meinecke Ave, Milwaukee, WI 53210, USA
p197
sg22
F43.06257
sg24
g4
sg36
I970
sg5
g4
sg6
VClassic Milwaukee Bungalow - 3BR 1BA
p198
sg9
V$1000
p199
sg17
V/apa/5235640917.html
p200
sg21
V2402 N 54th Street at Meinecke Milwaukee WI US
p201
sg41
I4228
sg23
I00
sg12
I00
sg13
F-87.980812
sg16
I00
sa(dp202
g2
I00
sg8
I00
sg14
g44
sg31
I22724
sg19
g169
sg11
g4
sg25
Vavailable sep 17
p203
sg27
V3000ft2
p204
sg34
I27092
sg3
V5504 W Lapham St, West Milwaukee, WI 53214, USA
p205
sg22
F43.014148
sg24
g4
sg36
I1240
sg5
g4
sg6
V5 Bedroom 4 bath HUGE Home-Laundry-Remodeled-2 Car Garage-BEAUTIFUL!
p206
sg9
V$1475
p207
sg17
V/apa/5226799558.html
p208
sg21
V55th at Lapham West Milwaukee WI US
p209
sg41
I6077
sg23
I00
sg12
I00
sg13
F-87.981745
sg16
I00
sa(dp210
g2
I00
sg8
I00
sg14
g15
sg31
I8019
sg19
g20
sg11
g4
sg25
Vavailable sep 25
p211
sg27
I0
sg34
I10307
sg3
V708 N Milwaukee St, Milwaukee, WI 53202, USA
p212
sg22
F43.0389
sg24
g4
sg36
I524
sg5
g4
sg6
V3 bedroom duplex **1/2 OFF 1ST MONTHS RENT**
p213
sg9
V$735
p214
sg17
V/apa/5235573619.html
p215
sg21
V71st at Silver Spring Dr Milwaukee WI US
p216
sg41
I2649
sg23
I00
sg12
I00
sg13
F-87.90647
sg16
I00
sa(dp217
g2
I00
sg8
I00
sg14
g15
sg31
I21106
sg19
g20
sg11
g4
sg25
Vavailable nov 01
p218
sg27
V1000ft2
p219
sg34
I26405
sg3
V5915 W Dixon St, Milwaukee, WI 53214, USA
p220
sg22
F43.029593
sg24
g4
sg36
I1080
sg5
g4
sg6
VBeautiful*Clean*Lower 3 Bedroom Duplex Wauwatosa Area
p221
sg9
V$850
p222
sg17
V/apa/5219025792.html
p223
sg21
g4
sg41
I6324
sg23
I00
sg12
I00
sg13
F-87.986929
sg16
I00
sa(dp224
g2
I00
sg3
V208-220 E Locust St, Milwaukee, WI 53212, USA
p225
sg5
g4
sg6
VBREWER HILL LARGE UPPER
p226
sg8
I00
sg9
V$875
p227
sg11
g4
sg12
I00
sg13
F-87.9084
sg14
g15
sg16
I00
sg17
V/apa/5206777921.html
p228
sg19
g20
sg21
g4
sg22
F43.0712
sg23
I00
sg24
g4
sg25
Vavailable oct 15
p229
sg27
V1500ft2
p230
sa(dp231
g2
I00
sg3
V1812-1866 W Hopkins St, Milwaukee, WI 53206, USA
p232
sg5
g4
sg6
VSingle House
p233
sg8
I00
sg9
V$900
p234
sg11
g4
sg12
I00
sg13
F-87.9347
sg14
g67
sg16
I00
sg17
V/apa/5228146811.html
p235
sg19
g169
sg21
V26th Milwaukee WI US
p236
sg22
F43.0753
sg23
I00
sg24
g4
sg25
Vavailable sep 18
p237
sg27
V1769ft2
p238
sa(dp239
g2
I00
sg3
V212 Grove St, Mayville, WI 53050, USA
p240
sg5
g4
sg6
VHouse for rent with detached garage
p241
sg8
I00
sg9
V$975
p242
sg11
g4
sg12
I00
sg13
F-88.551334
sg14
g15
sg16
I00
sg17
V/apa/5231336872.html
p243
sg19
g20
sg21
V229 Grove St Mayville WI US
p244
sg22
F43.4979
sg23
I00
sg24
g4
sg25
Vavailable nov 01
p245
sg27
I0
sa(dp246
g2
I00
sg3
V9805-9899 W Sheridan Ave, Milwaukee, WI 53225, USA
p247
sg5
g4
sg6
VSingle Family House For Rent
p248
sg8
I00
sg9
V$1200
p249
sg11
g4
sg12
I00
sg13
F-88.0346
sg14
g15
sg16
I00
sg17
V/apa/5204420934.html
p250
sg19
g20
sg21
g4
sg22
F43.1154
sg23
I00
sg24
g4
sg25
Vavailable sep 01
p251
sg27
I0
sa(dp252
g2
I00
sg3
g4
sg5
g4
sg6
VSingle Family House FOR RENT Newly Remodeled
p253
sg8
I00
sg9
V$1160
p254
sg11
g4
sg12
I00
sg13
I0
sg14
V1.5
p255
sg16
I00
sg17
V/apa/5226204043.html
p256
sg19
g20
sg21
g4
sg22
I0
sg23
I00
sg24
g4
sg25
Vavailable sep 17
p257
sg27
I0
sa(dp258
g2
I00
sg3
g4
sg5
g4
sg6
VDon't waste money on rent! You can Rent to Own!
p259
sg8
I00
sg9
V$1178
p260
sg11
g4
sg12
I00
sg13
I0
sg14
g67
sg16
I00
sg17
V/apa/5235381707.html
p261
sg19
g20
sg21
g4
sg22
I0
sg23
I00
sg24
g4
sg25
Vavailable sep 23
p262
sg27
V1994ft2
p263
sa(dp264
g2
I00
sg3
g4
sg5
g4
sg6
V3 BEDROOM UPPER/LOWER Past Eviction Accepted
p265
sg8
I00
sg9
V$750
p266
sg11
g4
sg12
I00
sg13
I0
sg14
g15
sg16
I00
sg17
V/apa/5218957206.html
p267
sg19
g20
sg21
g4
sg22
I0
sg23
I00
sg24
g4
sg25
Vavailable sep 25
p268
sg27
V1151ft2
p269
sa(dp270
g2
I00
sg3
V7201 W Brentwood Ave, Milwaukee, WI 53223, USA
p271
sg5
g4
sg6
V3 Bedroom Upper Duplex
p272
sg8
I00
sg9
V$925
p273
sg11
g4
sg12
I00
sg13
F-88.001088
sg14
V1.5
p274
sg16
I00
sg17
V/apa/5231514166.html
p275
sg19
g20
sg21
VBrentwood at Landers Milwaukee WI US
p276
sg22
F43.13501
sg23
I00
sg24
g4
sg25
Vavailable sep 15
p277
sg27
I0
sa(dp278
g2
I00
sg8
I00
sg14
g67
sg31
I2155
sg19
g20
sg11
g4
sg25
Vavailable nov 15
p279
sg27
I0
sg34
I2154
sg3
V9809 W Fountain Ave, Milwaukee, WI 53224, USA
p280
sg22
F43.1594
sg24
g4
sg36
I252
sg5
g4
sg6
V3BR Single Family Home Available November 15
p281
sg9
V$1400
p282
sg17
V/apa/5235476925.html
p283
sg21
g4
sg41
I1614
sg23
I00
sg12
I00
sg13
F-88.0327
sg16
I00
sa(dp284
g2
I00
sg8
I00
sg14
V1.5
p285
sg31
I21000
sg19
g20
sg11
g4
sg25
Vavailable oct 15
p286
sg27
I0
sg34
I26187
sg3
V208-220 E Locust St, Milwaukee, WI 53212, USA
p287
sg22
F43.0712
sg24
g4
sg36
I1077
sg5
g4
sg6
VQuiet 3 bedroom Townhouse
p288
sg9
V$825
p289
sg17
V/apa/5235467924.html
p290
sg21
V99 Milwaukee WI US
p291
sg41
I6849
sg23
I00
sg12
I00
sg13
F-87.9084
sg16
I00
sa(dp292
g2
I00
sg8
I00
sg14
g15
sg31
I11958
sg19
g20
sg11
g4
sg25
Vavailable sep 22
p293
sg27
V1084ft2
p294
sg34
I15573
sg3
V3618 N 40th St, Milwaukee, WI 53216, USA
p295
sg22
F43.083699
sg24
g4
sg36
I869
sg5
g4
sg6
VCharming 3 bed/1 bath near 40th & Nash
p296
sg9
V$895
p297
sg17
V/apa/5213820817.html
p298
sg21
V3629 N 40th St Milwaukee WI US
p299
sg41
I3591
sg23
I00
sg12
I00
sg13
F-87.963023
sg16
I00
sa(dp300
g2
I00
sg8
I00
sg14
g15
sg31
I10510
sg19
g20
sg11
g4
sg25
Vavailable sep 20
p301
sg27
I0
sg34
I12944
sg3
V5691 N 37th St, Milwaukee, WI 53209, USA
p302
sg22
F43.121247
sg24
g4
sg36
I710
sg5
g4
sg6
VCozy 3 bed/1 bath home near 37th& Thurston!
p303
sg9
V$950
p304
sg17
V/apa/5202371184.html
p305
sg21
V5690 N 37th St milwaukee WI US
p306
sg41
I4580
sg23
I00
sg12
I00
sg13
F-87.958787
sg16
I00
sa(dp307
g2
I00
sg8
I00
sg14
g15
sg31
I8239
sg19
g20
sg11
g4
sg25
Vavailable sep 01
p308
sg27
I0
sg34
I9808
sg3
V5859 N 64th St, Milwaukee, WI 53218, USA
p309
sg22
F43.124385
sg24
g4
sg36
I537
sg5
g4
sg6
VRent Special!Comfortable 3 bed/1 bath ranch near 64th & Florist!
p310
sg9
V$950
p311
sg17
V/apa/5206380031.html
p312
sg21
V5874 N 64th St Milwaukee WI US
p313
sg41
I2498
sg23
I00
sg12
I00
sg13
F-87.99109
sg16
I00
sa(dp314
g2
I00
sg3
V3751-3757 S 21st St, Milwaukee, WI 53221, USA
p315
sg5
g4
sg6
VSpacious 3 bedroom house near 21st & Wilbur
p316
sg8
I00
sg9
V$1295
p317
sg11
g4
sg12
I00
sg13
F-87.941184
sg14
g15
sg16
I00
sg17
V/apa/5232073133.html
p318
sg19
g20
sg21
g4
sg22
F42.976315
sg23
I00
sg24
g4
sg25
Vavailable oct 01
p319
sg27
V1070ft2
p320
sa(dp321
g2
I00
sg3
V626 E Wright St, Milwaukee, WI 53212, USA
p322
sg5
g4
sg6
VRiverwest 3-Bedroom Flat - AVAILABLE NOW
p323
sg8
I00
sg9
V$750
p324
sg11
g4
sg12
I00
sg13
F-87.903084
sg14
g15
sg16
I00
sg17
V/apa/5223558021.html
p325
sg19
g20
sg21
V701 e wright st Milwaukee WI US
p326
sg22
F43.063912
sg23
I00
sg24
g4
sg25
Vavailable oct 01
p327
sg27
I0
sa(dp328
g2
I00
sg3
V2541 N Oakland Ave, Milwaukee, WI 53211, USA
p329
sg5
g4
sg6
VLarge Upper Flat in Great Eastside Location - AVAILABLE OCTOBER 1
p330
sg8
I00
sg9
V$1200
p331
sg11
g4
sg12
I00
sg13
F-87.888117
sg14
g15
sg16
I00
sg17
V/apa/5212185527.html
p332
sg19
g20
sg21
V1806 E Webster Pl Milwaukee WI US
p333
sg22
F43.064818
sg23
I00
sg24
g4
sg25
Vavailable oct 01
p334
sg27
I0
sa(dp335
g2
I00
sg3
V2541 N Oakland Ave, Milwaukee, WI 53211, USA
p336
sg5
g4
sg6
VEastside 3-Bedroom Flat - AVAILABLE NOW
p337
sg8
I00
sg9
V$1200
p338
sg11
g4
sg12
I00
sg13
F-87.888094
sg14
g15
sg16
I00
sg17
V/apa/5223556126.html
p339
sg19
g20
sg21
V1808 E Webster Pl Milwaukee WI US
p340
sg22
F43.06482
sg23
I00
sg24
g4
sg25
Vavailable oct 01
p341
sg27
I0
sa(dp342
g2
I00
sg3
g4
sg5
g4
sg6
VCharming Lower Unit For Rent!
p343
sg8
I00
sg9
V$900
p344
sg11
g4
sg12
I00
sg13
I0
sg14
g15
sg16
I00
sg17
V/apa/5235430826.html
p345
sg19
g20
sg21
g4
sg22
I0
sg23
I00
sg24
g4
sg25
Vavailable oct 01
p346
sg27
I0
sa(dp347
g2
I00
sg3
VN831 Amanda St, Oconomowoc, WI 53066, USA
p348
sg5
g4
sg6
V3 bedroom apt. w/ HEAT INCLUDED!
p349
sg8
I00
sg9
V$780
p350
sg11
g4
sg12
I00
sg13
F-88.517424
sg14
I0
sg16
I00
sg17
V/apa/5235442351.html
p351
sg19
V3
p352
sg21
g4
sg22
F43.221775
sg23
I00
sg24
g4
sg25
Vavailable oct 01
p353
sg27
I0
sa(dp354
g2
I00
sg3
g4
sg5
g4
sg6
VBrewers Hill 4 Bedroom-Price Reduction!
p355
sg8
I00
sg9
V$995
p356
sg11
g4
sg12
I00
sg13
I0
sg14
g15
sg16
I00
sg17
V/apa/5228975130.html
p357
sg19
g44
sg21
g4
sg22
I0
sg23
I00
sg24
g4
sg25
Vavailable sep 01
p358
sg27
V1600ft2
p359
sa(dp360
g2
I00
sg3
V327-357 E Centennial Dr, Oak Creek, WI 53154, USA
p361
sg5
g4
sg6
VCentennial Park - Arbors 3 bedroom
p362
sg8
I00
sg9
V$1335
p363
sg11
g4
sg12
I00
sg13
F-87.905946
sg14
g67
sg16
I00
sg17
V/apa/5235433185.html
p364
sg19
g20
sg21
V500 East Centennial Drive Oak Creek WI US
p365
sg22
F42.881813
sg23
I00
sg24
g4
sg25
Vavailable sep 23
p366
sg27
I0
sa(dp367
g2
I00
sg3
g4
sg5
g4
sg6
VCharming East Side Lower Unit For Rent!
p368
sg8
I00
sg9
V$1300
p369
sg11
g4
sg12
I00
sg13
I0
sg14
g15
sg16
I00
sg17
V/apa/5224923829.html
p370
sg19
g20
sg21
g4
sg22
I0
sg23
I00
sg24
g4
sg25
Vavailable sep 01
p371
sg27
I0
sa(dp372
g2
I00
sg3
g4
sg5
g4
sg6
VVery Nice Riverwest Lower Available Now!
p373
sg8
I00
sg9
V$900
p374
sg11
g4
sg12
I00
sg13
I0
sg14
g15
sg16
I00
sg17
V/apa/5207838050.html
p375
sg19
g20
sg21
g4
sg22
I0
sg23
I00
sg24
g4
sg25
Vavailable sep 01
p376
sg27
V1000ft2
p377
sa(dp378
g2
I00
sg8
I00
sg14
V2.5
p379
sg31
I104086
sg19
g20
sg11
g4
sg25
Vavailable oct 01
p380
sg27
V1600ft2
p381
sg34
I204733
sg3
VDeer Path Dr, Genoa City, WI 53128, USA
p382
sg22
F42.513741
sg24
g4
sg36
I3771
sg5
g4
sg6
VSpacious Townhouse in Family Friendly neighborhood
p383
sg9
V$1175
p384
sg17
V/apa/5235430048.html
p385
sg21
VHunters Ridge Drive Genoa City WI US
p386
sg41
I22987
sg23
I00
sg12
I00
sg13
F-88.318062
sg16
I00
sa(dp387
g2
I00
sg8
I00
sg14
g67
sg31
I25121
sg19
g20
sg11
g4
sg25
Vavailable oct 17
p388
sg27
V1442ft2
p389
sg34
I37597
sg3
V2227-2277 S Clubhouse Dr, New Berlin, WI 53151, USA
p390
sg22
F43.004145
sg24
g4
sg36
I1250
sg5
g4
sg6
VFabulous 3 bedroom Condo style Apt Home
p391
sg9
V$1430
p392
sg17
V/apa/5229675424.html
p393
sg21
g4
sg41
I7782
sg23
I00
sg12
I00
sg13
F-88.106403
sg16
I00
sa(dp394
g2
I00
sg8
I00
sg14
g67
sg31
I24947
sg19
g20
sg11
g4
sg25
Vavailable oct 15
p395
sg27
I0
sg34
I37443
sg3
V2200 S Moorland Rd, New Berlin, WI 53151, USA
p396
sg22
F43.004647
sg24
g4
sg36
I1221
sg5
g4
sg6
VShort Term Rentals Now Available 3-6 Months
p397
sg9
V$1445
p398
sg17
V/apa/5229696520.html
p399
sg21
g4
sg41
I7679
sg23
I00
sg12
I00
sg13
F-88.106232
sg16
I00
sa(dp400
g2
I00
sg8
I00
sg14
g15
sg31
I16252
sg19
g20
sg11
g4
sg25
Vavailable oct 01
p401
sg27
V1100ft2
p402
sg34
I21461
sg3
V2601-2699 N 7th St, Milwaukee, WI 53212, USA
p403
sg22
F43.065812
sg24
g4
sg36
I1295
sg5
g4
sg6
VLarge 3 BR in Harambee. Freshly Remodeled
p404
sg9
V$775
p405
sg17
V/apa/5235417114.html
p406
sg21
V639 W Clarke St Milwaukee WI US
p407
sg41
I4587
sg23
I00
sg12
I00
sg13
F-87.919985
sg16
I00
sa(dp408
g2
I00
sg3
g4
sg5
g4
sg6
VLarge 3 Bedroom 1.5 Bath Townhome **1/2 Off 1st Months Rent**
p409
sg8
I00
sg9
V$810
p410
sg11
g4
sg12
I00
sg13
I0
sg14
V1.5
p411
sg16
I00
sg17
V/apa/5235367168.html
p412
sg19
g20
sg21
g4
sg22
I0
sg23
I00
sg24
g4
sg25
Vavailable sep 25
p413
sg27
I0
sa(dp414
g2
I00
sg3
g4
sg5
g4
sg6
VAdorable computer room WOODED AREA Riverwest HOME
p415
sg8
I00
sg9
V$1077
p416
sg11
g4
sg12
I00
sg13
I0
sg14
g15
sg16
I00
sg17
V/apa/5200923784.html
p417
sg19
g44
sg21
g4
sg22
I0
sg23
I00
sg24
g4
sg25
Vavailable sep 01
p418
sg27
V1474ft2
p419
sa(dp420
g2
I00
sg3
g4
sg5
g4
sg6
VIDEAL LOCATION! Bulrington
p421
sg8
I00
sg9
V$1084
p422
sg11
g4
sg12
I00
sg13
I0
sg14
g67
sg16
I00
sg17
V/apa/5224160445.html
p423
sg19
g20
sg21
g4
sg22
I0
sg23
I00
sg24
g4
sg25
Vavailable sep 16
p424
sg27
V1819ft2
p425
sa(dp426
g2
I00
sg3
g4
sg5
g4
sg6
VGorgeous 3 Bedroom for rent!
p427
sg8
I00
sg9
V$895
p428
sg11
g4
sg12
I00
sg13
I0
sg14
g15
sg16
I00
sg17
V/apa/5228206557.html
p429
sg19
g20
sg21
g4
sg22
I0
sg23
I00
sg24
g4
sg25
Vavailable oct 03
p430
sg27
V1400ft2
p431
sa(dp432
g2
I00
sg8
I00
sg14
g15
sg31
I14501
sg19
g20
sg11
g4
sg25
Vavailable oct 01
p433
sg27
V1400ft2
p434
sg34
I18068
sg3
V1812-1866 W Hopkins St, Milwaukee, WI 53206, USA
p435
sg22
F43.0753
sg24
g4
sg36
I1064
sg5
g4
sg6
VClean and spacious 3bd with heat included
p436
sg9
V$695
p437
sg17
V/apa/5235395950.html
p438
sg21
g4
sg41
I5010
sg23
I00
sg12
I00
sg13
F-87.9347
sg16
I00
sa(dp439
g2
I00
sg3
V4469 N Frederick Ave, Shorewood, WI 53211, USA
p440
sg5
g4
sg6
VBeautiful 3 Bedroom Lower Duplex
p441
sg8
I00
sg9
V$1600
p442
sg11
g4
sg12
I00
sg13
F-87.883751
sg14
g15
sg16
I00
sg17
V/apa/5197774809.html
p443
sg19
g20
sg21
V4477 North Frederick Avenue Shorewood WI US
p444
sg22
F43.097627
sg23
I00
sg24
g4
sg25
Vavailable oct 01
p445
sg27
I0
sa(dp446
g2
I00
sg3
V3914 W Vliet St, Milwaukee, WI 53208, USA
p447
sg5
g4
sg6
VHUGE 4BR SECURE TODAY @ SPECIAL PRICING
p448
sg8
I00
sg9
V$925
p449
sg11
g4
sg12
I00
sg13
F-87.9625
sg14
g67
sg16
I00
sg17
V/apa/5220893067.html
p450
sg19
g44
sg21
g4
sg22
F43.0488
sg23
I00
sg24
g4
sg25
Vavailable sep 15
p451
sg27
I0
sa(dp452
g2
I00
sg3
V2201-2211 N 27th St, Milwaukee, WI 53208, USA
p453
sg5
g4
sg6
VHUGE UPDATED 5 BR SF
p454
sg8
I00
sg9
V$925
p455
sg11
g4
sg12
I00
sg13
F-87.947586
sg14
g67
sg16
I00
sg17
V/apa/5221376513.html
p456
sg19
g169
sg21
V27th at Garfield Milwaukee WI US
p457
sg22
F43.059212
sg23
I00
sg24
g4
sg25
Vavailable sep 15
p458
sg27
V2200ft2
p459
sa(dp460
g2
I00
sg3
V3914 W Vliet St, Milwaukee, WI 53208, USA
p461
sg5
g4
sg6
VWHEEL CHAIR ACCESSIBLE 5 BEDROOM
p462
sg8
I00
sg9
V$995
p463
sg11
g4
sg12
I00
sg13
F-87.9625
sg14
g67
sg16
I00
sg17
V/apa/5206621199.html
p464
sg19
g169
sg21
V27th at garfield milwaaukee WI US
p465
sg22
F43.0488
sg23
I00
sg24
g4
sg25
Vavailable sep 04
p466
sg27
V1990ft2
p467
sa(dp468
g2
I00
sg8
I00
sg14
g67
sg31
I14904
sg19
g169
sg11
g4
sg25
Vavailable sep 15
p469
sg27
V2200ft2
p470
sg34
I18378
sg3
V2201-2211 N 27th St, Milwaukee, WI 53208, USA
p471
sg22
F43.059212
sg24
g4
sg36
I1158
sg5
g4
sg6
VWheel chair ramp 5 bedroom
p472
sg9
V$1000
p473
sg17
V/apa/5218842029.html
p474
sg21
V27th at garfield milwaukee WI US
p475
sg41
I4305
sg23
I00
sg12
I00
sg13
F-87.947586
sg16
I00
sa(dp476
g2
I00
sg8
I00
sg14
g15
sg31
I15512
sg19
g20
sg11
g4
sg25
Vavailable oct 01
p477
sg27
V1200ft2
p478
sg34
I19527
sg3
V3914 W Vliet St, Milwaukee, WI 53208, USA
p479
sg22
F43.0488
sg24
g4
sg36
I1191
sg5
g4
sg6
VCharming 3 Br 1 Bath newly remodeled unit
p480
sg9
V$750
p481
sg17
V/apa/5235373033.html
p482
sg21
g4
sg41
I4555
sg23
I00
sg12
I00
sg13
F-87.9625
sg16
I00
sa(dp483
g2
I00
sg8
I00
sg14
V2.5
p484
sg31
I3463
sg19
g20
sg11
g4
sg25
Vavailable oct 01
p485
sg27
V1508ft2
p486
sg34
I4102
sg3
V10525-10553 W Mill Rd, Milwaukee, WI 53225, USA
p487
sg22
F43.133809
sg24
g4
sg36
I306
sg5
g4
sg6
VRent To Own Single Family House: Few Days left in the Market!!
p488
sg9
V$1300
p489
sg17
V/apa/5227458970.html
p490
sg21
V10509 W Mill Road Milwaukee WI US
p491
sg41
I1565
sg23
I00
sg12
I00
sg13
F-88.043087
sg16
I00
sa(dp492
g2
I00
sg8
I00
sg14
V2.5
p493
sg31
I9220
sg19
g44
sg11
g4
sg25
Vavailable nov 01
p494
sg27
I0
sg34
I15884
sg3
V5240 W Joleno Ln, Brown Deer, WI 53223, USA
p495
sg22
F43.184008
sg24
g4
sg36
I720
sg5
g4
sg6
V4 bedroom 2.5 bathroom available November
p496
sg9
V$1460
p497
sg17
V/apa/5211977167.html
p498
sg21
VSurf Ct Milwaukee WI US
p499
sg41
I4680
sg23
I00
sg12
I00
sg13
F-87.975588
sg16
I00
sa(dp500
g2
I00
sg8
I00
sg14
g15
sg31
I27172
sg19
g20
sg11
g4
sg25
Vavailable nov 15
p501
sg27
I0
sg34
I23827
sg3
V506 Riverview Dr, Manitowoc, WI 54220, USA
p502
sg22
F44.0971
sg24
g4
sg36
I1500
sg5
g4
sg6
V2BR/1BA Duplex - Manitowoc
p503
sg9
V$435
p504
sg17
V/apa/5213521187.html
p505
sg21
V20th st at Marshall Milwaukee WI US
p506
sg41
I5307
sg23
I00
sg12
I00
sg13
F-87.6823
sg16
I00
sa(dp507
g2
I00
sg3
V2135 S 57th St, West Allis, WI 53219, USA
p508
sg5
g4
sg6
V*** West Allis Home For Rent ***
p509
sg8
I00
sg9
V$1050
p510
sg11
g4
sg12
I00
sg13
F-87.983986
sg14
g15
sg16
I00
sg17
V/apa/5235348389.html
p511
sg19
g20
sg21
VS 57th at W Mobile West Allis WI US
p512
sg22
F43.005514
sg23
I00
sg24
g4
sg25
Vavailable oct 15
p513
sg27
V1200ft2
p514
sa(dp515
g2
I00
sg3
V700-720 Maple Ave, Waukesha, WI 53186, USA
p516
sg5
g4
sg6
VLarge 3 bedroom w/beautiful hardwood floors
p517
sg8
I00
sg9
V$775
p518
sg11
g4
sg12
I00
sg13
F-88.234059
sg14
g15
sg16
I00
sg17
V/apa/5205759301.html
p519
sg19
g20
sg21
V716 Maple Ave Waukesha WI US
p520
sg22
F43.009906
sg23
I00
sg24
g4
sg25
Vavailable sep 15
p521
sg27
I0
sa(dp522
g2
I00
sg3
g4
sg5
g4
sg6
V5 bedroom 2 bathroom for rent
p523
sg8
I00
sg9
V$895
p524
sg11
g4
sg12
I00
sg13
I0
sg14
V1.5
p525
sg16
I00
sg17
V/apa/5227502470.html
p526
sg19
g169
sg21
g4
sg22
I0
sg23
I00
sg24
g4
sg25
Vavailable sep 18
p527
sg27
I0
sa(dp528
g2
I00
sg3
V1812-1866 W Hopkins St, Milwaukee, WI 53206, USA
p529
sg5
g4
sg6
V4 bedroom upper duplex 1/2 off 1st month's rent
p530
sg8
I00
sg9
V$725
p531
sg11
g4
sg12
I00
sg13
F-87.9347
sg14
g15
sg16
I00
sg17
V/apa/5226566724.html
p532
sg19
g44
sg21
g4
sg22
F43.0753
sg23
I00
sg24
g4
sg25
Vavailable sep 17
p533
sg27
I0
sa(dp534
g2
I00
sg3
V208-220 E Locust St, Milwaukee, WI 53212, USA
p535
sg5
g4
sg6
V3 bedroom upper duplex unit
p536
sg8
I00
sg9
V$695
p537
sg11
g4
sg12
I00
sg13
F-87.9084
sg14
g15
sg16
I00
sg17
V/apa/5191354139.html
p538
sg19
g20
sg21
g4
sg22
F43.0712
sg23
I00
sg24
g4
sg25
Vavailable aug 26
p539
sg27
I0
sa(dp540
g2
I00
sg3
V6801 N Yates Rd, Fox Point, WI 53217, USA
p541
sg5
g4
sg6
VVARIOUS UNITS -STOP IN FOR FREE LISTING!!!
p542
sg8
I00
sg9
V$775
p543
sg11
g4
sg12
I00
sg13
F-87.9073
sg14
g15
sg16
I00
sg17
V/apa/5197275025.html
p544
sg19
g44
sg21
V6300 N port washington rd milwaukee WI US
p545
sg22
F43.1409
sg23
I00
sg24
g4
sg25
Vavailable sep 01
p546
sg27
I0
sa(dp547
g2
I00
sg3
V1812-1866 W Hopkins St, Milwaukee, WI 53206, USA
p548
sg5
g4
sg6
VENTIRE 3 bedroom duplex upper or lower
p549
sg8
I00
sg9
V$625
p550
sg11
g4
sg12
I00
sg13
F-87.9347
sg14
g15
sg16
I00
sg17
V/apa/5226485221.html
p551
sg19
g20
sg21
g4
sg22
F43.0753
sg23
I00
sg24
g4
sg25
Vavailable sep 17
p552
sg27
I0
sa(dp553
g2
I00
sg3
V1812-1866 W Hopkins St, Milwaukee, WI 53206, USA
p554
sg5
g4
sg6
VENTIRE DUPLEX upper or lower units
p555
sg8
I00
sg9
V$695
p556
sg11
g4
sg12
I00
sg13
F-87.9347
sg14
g15
sg16
I00
sg17
V/apa/5226478075.html
p557
sg19
g20
sg21
g4
sg22
F43.0753
sg23
I00
sg24
g4
sg25
Vavailable sep 17
p558
sg27
I0
sa(dp559
g2
I00
sg3
V3024 N 44th St, Milwaukee, WI 53210, USA
p560
sg5
g4
sg6
VGreat 3 Bedroom Single Family Home for Rent - HALF OFF FIRST MONTH
p561
sg8
I00
sg9
V$1295
p562
sg11
g4
sg12
I00
sg13
F-87.968651
sg14
V1.5
p563
sg16
I00
sg17
V/apa/5227736142.html
p564
sg19
g20
sg21
V3034 N 44th St Milwaukee WI US
p565
sg22
F43.073936
sg23
I00
sg24
g4
sg25
Vavailable oct 01
p566
sg27
V1404ft2
p567
sa(dp568
g2
I00
sg3
V1812-1866 W Hopkins St, Milwaukee, WI 53206, USA
p569
sg5
g4
sg6
V6 BedRoom 1 bath single family home
p570
sg8
I00
sg9
V$895
p571
sg11
g4
sg12
I00
sg13
F-87.9347
sg14
g15
sg16
I00
sg17
V/apa/5191322761.html
p572
sg19
V6
p573
sg21
g4
sg22
F43.0753
sg23
I00
sg24
g4
sg25
Vavailable aug 04
p574
sg27
I0
sa(dp575
g2
I00
sg8
I00
sg14
g15
sg31
I13617
sg19
g20
sg11
g4
sg25
Vavailable oct 01
p576
sg27
V1443ft2
p577
sg34
I17527
sg3
V2533 N 50th St, Milwaukee, WI 53210, USA
p578
sg22
F43.065051
sg24
g4
sg36
I1041
sg5
g4
sg6
VGreat Three Bedroom Single Family Home for Rent - HALF OFF FIRST MONTH
p579
sg9
V$1195
p580
sg17
V/apa/5227732415.html
p581
sg21
V2523 N 50th Street Milwaukee WI US
p582
sg41
I4546
sg23
I00
sg12
I00
sg13
F-87.976251
sg16
I00
sa(dp583
g2
I00
sg8
I00
sg14
g15
sg31
I7826
sg19
g20
sg11
g4
sg25
Vavailable sep 08
p584
sg27
I0
sg34
I11006
sg3
V6526-6528 W Villard Ave, Milwaukee, WI 53218, USA
p585
sg22
F43.1122
sg24
g4
sg36
I474
sg5
g4
sg6
V3 bedroom 1 bath upper
p586
sg9
V$750
p587
sg17
V/apa/5191391196.html
p588
sg21
g4
sg41
I2699
sg23
I00
sg12
I00
sg13
F-87.9932
sg16
I00
sa(dp589
g2
I00
sg3
g4
sg5
g4
sg6
V5 BedRoom 1 bath single family home
p590
sg8
I00
sg9
V$895
p591
sg11
g4
sg12
I00
sg13
I0
sg14
g15
sg16
I00
sg17
V/apa/5191307467.html
p592
sg19
g169
sg21
g4
sg22
I0
sg23
I00
sg24
g4
sg25
Vavailable sep 04
p593
sg27
I0
sa(dp594
g2
I00
sg8
I00
sg14
g15
sg31
I28785
sg19
g20
sg11
g4
sg25
Vavailable oct 01
p595
sg27
I0
sg34
I26673
sg3
V1529 W Orchard St, Milwaukee, WI 53204, USA
p596
sg22
F43.0158
sg24
g4
sg36
I1448
sg5
g4
sg6
VGreat South Side Three Bedroom Upper for Rent - HALF OFF FIRST MONTH
p597
sg9
V$745
p598
sg17
V/apa/5227763082.html
p599
sg21
V632 W Burham St Milwaukee WI US
p600
sg41
I6037
sg23
I00
sg12
I00
sg13
F-87.9317
sg16
I00
sa(dp601
g2
I00
sg8
I00
sg14
g15
sg31
I7826
sg19
g20
sg11
g4
sg25
Vavailable sep 17
p602
sg27
I0
sg34
I11006
sg3
V6526-6528 W Villard Ave, Milwaukee, WI 53218, USA
p603
sg22
F43.1122
sg24
g4
sg36
I474
sg5
g4
sg6
V3 bedroom duplex upper
p604
sg9
V$795
p605
sg17
V/apa/5226495847.html
p606
sg21
g4
sg41
I2699
sg23
I00
sg12
I00
sg13
F-87.9932
sg16
I00
sa(dp607
g2
I00
sg3
g4
sg5
g4
sg6
VLarge 3 Bedroom Unit Available August!!
p608
sg8
I00
sg9
V$1300
p609
sg11
g4
sg12
I00
sg13
I0
sg14
I0
sg16
I00
sg17
V/apa/5224918248.html
p610
sg19
V3
p611
sg21
g4
sg22
I0
sg23
I00
sg24
g4
sg25
Vavailable sep 16
p612
sg27
I0
sa(dp613
g2
I00
sg8
I00
sg14
g15
sg31
I13374
sg19
g20
sg11
g4
sg25
Vavailable sep 17
p614
sg27
I0
sg34
I17183
sg3
V2725 N 46th St, Milwaukee, WI 53210, USA
p615
sg22
F43.0685
sg24
g4
sg36
I1005
sg5
g4
sg6
VENTIRE 3 bedroom duplex upper or lower
p616
sg9
V$775
p617
sg17
V/apa/5226472196.html
p618
sg21
g4
sg41
I4264
sg23
I00
sg12
I00
sg13
F-87.9715
sg16
I00
sa(dp619
g2
I00
sg3
V1812-1866 W Hopkins St, Milwaukee, WI 53206, USA
p620
sg5
g4
sg6
V6 BedRoom 1.5 bath single family home
p621
sg8
I00
sg9
V$895
p622
sg11
g4
sg12
I00
sg13
F-87.9347
sg14
V1.5
p623
sg16
I00
sg17
V/apa/5191327737.html
p624
sg19
g573
sg21
g4
sg22
F43.0753
sg23
I00
sg24
g4
sg25
Vavailable aug 04
p625
sg27
I0
sa(dp626
g2
I00
sg3
V1812-1866 W Hopkins St, Milwaukee, WI 53206, USA
p627
sg5
g4
sg6
V4 BedRoom 1 bath single family home
p628
sg8
I00
sg9
V$895
p629
sg11
g4
sg12
I00
sg13
F-87.9347
sg14
g15
sg16
I00
sg17
V/apa/5191311461.html
p630
sg19
g44
sg21
g4
sg22
F43.0753
sg23
I00
sg24
g4
sg25
Vavailable sep 04
p631
sg27
I0
sa(dp632
g2
I00
sg3
V6801 N Yates Rd, Fox Point, WI 53217, USA
p633
sg5
g4
sg6
VVARIOUS UNITS -STOP IN FOR FREE LISTING!!!
p634
sg8
I00
sg9
V$850
p635
sg11
g4
sg12
I00
sg13
F-87.9073
sg14
g67
sg16
I00
sg17
V/apa/5197272811.html
p636
sg19
g573
sg21
V6300 N port washington rd milwaukee WI US
p637
sg22
F43.1409
sg23
I00
sg24
g4
sg25
Vavailable sep 03
p638
sg27
I0
sa(dp639
g2
I00
sg3
V6801 N Yates Rd, Fox Point, WI 53217, USA
p640
sg5
g4
sg6
VVARIOUS UNITS -STOP IN FOR FREE LISTING!!!
p641
sg8
I00
sg9
V$925
p642
sg11
g4
sg12
I00
sg13
F-87.9073
sg14
g15
sg16
I00
sg17
V/apa/5197273270.html
p643
sg19
g169
sg21
V6300 N port washington rd milwaukee WI US
p644
sg22
F43.1409
sg23
I00
sg24
g4
sg25
Vavailable jun 01
p645
sg27
I0
sa(dp646
g2
I00
sg3
V208-220 E Locust St, Milwaukee, WI 53212, USA
p647
sg5
g4
sg6
V3 bedroom 1 bath lower duplex unit
p648
sg8
I00
sg9
V$675
p649
sg11
g4
sg12
I00
sg13
F-87.9084
sg14
g15
sg16
I00
sg17
V/apa/5191343770.html
p650
sg19
g20
sg21
g4
sg22
F43.0712
sg23
I00
sg24
g4
sg25
Vavailable aug 26
p651
sg27
I0
sa(dp652
g2
I00
sg3
V1812-1866 W Hopkins St, Milwaukee, WI 53206, USA
p653
sg5
g4
sg6
V5 BedRoom 2 bath single family home
p654
sg8
I00
sg9
V$875
p655
sg11
g4
sg12
I00
sg13
F-87.9347
sg14
g67
sg16
I00
sg17
V/apa/5191331020.html
p656
sg19
g169
sg21
g4
sg22
F43.0753
sg23
I00
sg24
g4
sg25
Vavailable sep 03
p657
sg27
I0
sa(dp658
g2
I00
sg3
V6526-6528 W Villard Ave, Milwaukee, WI 53218, USA
p659
sg5
g4
sg6
V3 bedroom 1 bath upper duplex unit
p660
sg8
I00
sg9
V$795
p661
sg11
g4
sg12
I00
sg13
F-87.9932
sg14
g15
sg16
I00
sg17
V/apa/5191408129.html
p662
sg19
g20
sg21
g4
sg22
F43.1122
sg23
I00
sg24
g4
sg25
Vavailable aug 26
p663
sg27
I0
sa(dp664
g2
I00
sg3
V6526-6528 W Villard Ave, Milwaukee, WI 53218, USA
p665
sg5
g4
sg6
V3 bedroom 1 bath upper duplex
p666
sg8
I00
sg9
V$775
p667
sg11
g4
sg12
I00
sg13
F-87.9932
sg14
g15
sg16
I00
sg17
V/apa/5191425403.html
p668
sg19
g20
sg21
g4
sg22
F43.1122
sg23
I00
sg24
g4
sg25
Vavailable aug 26
p669
sg27
I0
sa(dp670
g2
I00
sg3
V1812-1866 W Hopkins St, Milwaukee, WI 53206, USA
p671
sg5
g4
sg6
V5 BedRoom 1.5 bath single family home
p672
sg8
I00
sg9
V$895
p673
sg11
g4
sg12
I00
sg13
F-87.9347
sg14
g15
sg16
I00
sg17
V/apa/5191319572.html
p674
sg19
g20
sg21
g4
sg22
F43.0753
sg23
I00
sg24
g4
sg25
Vavailable aug 26
p675
sg27
I0
sa(dp676
g2
I00
sg3
V208-220 E Locust St, Milwaukee, WI 53212, USA
p677
sg5
g4
sg6
V3 bedroom upper duplex
p678
sg8
I00
sg9
V$675
p679
sg11
g4
sg12
I00
sg13
F-87.9084
sg14
g15
sg16
I00
sg17
V/apa/5191363563.html
p680
sg19
g20
sg21
g4
sg22
F43.0712
sg23
I00
sg24
g4
sg25
Vavailable aug 26
p681
sg27
I0
sa(dp682
g2
I00
sg8
I00
sg14
g15
sg31
I16754
sg19
g44
sg11
g4
sg25
Vavailable aug 26
p683
sg27
I0
sg34
I21763
sg3
V208-220 E Locust St, Milwaukee, WI 53212, USA
p684
sg22
F43.0712
sg24
g4
sg36
I1324
sg5
g4
sg6
V4 bedroom 1 bath lower duplex unit
p685
sg9
V$750
p686
sg17
V/apa/5191348512.html
p687
sg21
g4
sg41
I5133
sg23
I00
sg12
I00
sg13
F-87.9084
sg16
I00
sa(dp688
g2
I00
sg3
g4
sg5
g4
sg6
V6300 N PortWashingington rd
p689
sg8
I00
sg9
V$750
p690
sg11
g4
sg12
I00
sg13
I0
sg14
g15
sg16
I00
sg17
V/apa/5202523190.html
p691
sg19
g20
sg21
g4
sg22
I0
sg23
I00
sg24
g4
sg25
Vavailable sep 02
p692
sg27
I0
sa(dp693
g2
I00
sg8
I00
sg14
g67
sg31
I14501
sg19
g44
sg11
g4
sg25
Vavailable sep 02
p694
sg27
I0
sg34
I18068
sg3
V1812-1866 W Hopkins St, Milwaukee, WI 53206, USA
p695
sg22
F43.0753
sg24
g4
sg36
I1064
sg5
g4
sg6
VALL SINGLE FAMILY HOMES 1/2 OFF
p696
sg9
V$940
p697
sg17
V/apa/5202515433.html
p698
sg21
g4
sg41
I5010
sg23
I00
sg12
I00
sg13
F-87.9347
sg16
I00
sa(dp699
g2
I00
sg8
I00
sg14
V1.5
p700
sg31
I13705
sg19
g169
sg11
g4
sg25
Vavailable sep 02
p701
sg27
I0
sg34
I19427
sg3
V6801 N Yates Rd, Fox Point, WI 53217, USA
p702
sg22
F43.1409
sg24
g4
sg36
I1041
sg5
g4
sg6
VVARIOUS UNITS -STOP IN FOR FREE LISTING!!!
p703
sg9
V$850
p704
sg17
V/apa/5202524093.html
p705
sg21
g4
sg41
I6082
sg23
I00
sg12
I00
sg13
F-87.9073
sg16
I00
sa(dp706
g2
I00
sg8
I00
sg14
V2.5
p707
sg31
I3463
sg19
g20
sg11
g4
sg25
Vavailable sep 15
p708
sg27
V1508ft2
p709
sg34
I4102
sg3
V10525-10553 W Mill Rd, Milwaukee, WI 53225, USA
p710
sg22
F43.133809
sg24
g4
sg36
I306
sg5
g4
sg6
VRent To Own Single Family House: Few Days left in the Market!!
p711
sg9
V$1300
p712
sg17
V/apa/5216801758.html
p713
sg21
V10509 W Mill Road Milwaukee WI US
p714
sg41
I1565
sg23
I00
sg12
I00
sg13
F-88.043087
sg16
I00
sa.